target datalayout = "e-m:e-p270:32:32-p271:32:32-p272:64:64-i64:64-i128:128-f80:128-n8:16:32:64-S128"
target triple = "x86_64-pc-linux-gnu"

%"class.gmx::BinaryInformationSettings" = type { i8, i8, i8, i8, ptr, ptr }
%"class.gmx::TextWriter" = type { %"class.std::unique_ptr" }
%"class.std::unique_ptr" = type { %"struct.std::__uniq_ptr_data" }
%"struct.std::__uniq_ptr_data" = type { %"class.std::__uniq_ptr_impl" }
%"class.std::__uniq_ptr_impl" = type { %"class.std::tuple" }
%"class.std::tuple" = type { %"struct.std::_Tuple_impl" }
%"struct.std::_Tuple_impl" = type { %"struct.std::_Head_base.5" }
%"struct.std::_Head_base.5" = type { ptr }

@_ZN3gmx25BinaryInformationSettingsC1Ev = unnamed_addr alias void (ptr), ptr @_ZN3gmx25BinaryInformationSettingsC2Ev

; Function Attrs: mustprogress uwtable
define void @_ZN3gmx22printBinaryInformationEP8_IO_FILERKNS_15IProgramContextE(ptr noundef %0, ptr noundef nonnull align 8 dereferenceable(8) %1) #4 personality ptr @__gxx_personality_v0 {
  %3 = alloca ptr, align 8
  %4 = alloca ptr, align 8
  %5 = alloca %"class.gmx::TextWriter", align 8
  %6 = alloca %"class.gmx::BinaryInformationSettings", align 8
  %7 = alloca ptr, align 8
  %8 = alloca i32, align 4
  store ptr %0, ptr %3, align 8, !tbaa !76
  store ptr %1, ptr %4, align 8, !tbaa !78
  call void @llvm.lifetime.start.p0(i64 8, ptr %5) #1
  %9 = load ptr, ptr %3, align 8, !tbaa !76
  call void @_ZN3gmx10TextWriterC1EP8_IO_FILE(ptr noundef nonnull align 8 dereferenceable(8) %5, ptr noundef %9)
  %10 = load ptr, ptr %4, align 8, !tbaa !78
  call void @llvm.lifetime.start.p0(i64 24, ptr %6) #1
  invoke void @_ZN3gmx25BinaryInformationSettingsC1Ev(ptr noundef nonnull align 8 dereferenceable(24) %6)
          to label %11 unwind label %13

11:                                               ; preds = %2
  invoke void @_ZN3gmx22printBinaryInformationEPNS_10TextWriterERKNS_15IProgramContextERKNS_25BinaryInformationSettingsE(ptr noundef %5, ptr noundef nonnull align 8 dereferenceable(8) %10, ptr noundef nonnull align 8 dereferenceable(24) %6)
          to label %12 unwind label %13

12:                                               ; preds = %11
  call void @llvm.lifetime.end.p0(i64 24, ptr %6) #1
  call void @_ZN3gmx10TextWriterD1Ev(ptr noundef nonnull align 8 dereferenceable(8) %5) #1
  call void @llvm.lifetime.end.p0(i64 8, ptr %5) #1
  ret void

13:                                               ; preds = %11, %2
  %14 = landingpad { ptr, i32 }
          cleanup
  %15 = extractvalue { ptr, i32 } %14, 0
  store ptr %15, ptr %7, align 8
  %16 = extractvalue { ptr, i32 } %14, 1
  store i32 %16, ptr %8, align 4
  call void @llvm.lifetime.end.p0(i64 24, ptr %6) #1
  call void @_ZN3gmx10TextWriterD1Ev(ptr noundef nonnull align 8 dereferenceable(8) %5) #1
  call void @llvm.lifetime.end.p0(i64 8, ptr %5) #1
  br label %17

17:                                               ; preds = %13
  %18 = load ptr, ptr %7, align 8
  %19 = load i32, ptr %8, align 4
  %20 = insertvalue { ptr, i32 } poison, ptr %18, 0
  %21 = insertvalue { ptr, i32 } %20, i32 %19, 1
  resume { ptr, i32 } %21
}