; Function Attrs: mustprogress uwtable
define void @_ZN3gmx22printBinaryInformationEP8_IO_FILERKNS_15IProgramContextE(ptr noundef %0, ptr noundef nonnull align 8 dereferenceable(8) %1) local_unnamed_addr #12 personality ptr @__gxx_personality_v0 {
  %3 = alloca %"class.gmx::TextWriter", align 8
  %4 = alloca %"class.gmx::BinaryInformationSettings", align 8
  call void @llvm.lifetime.start.p0(i64 8, ptr nonnull %3) #22
  call void @_ZN3gmx10TextWriterC1EP8_IO_FILE(ptr noundef nonnull align 8 dereferenceable(8) %3, ptr noundef %0)
  call void @llvm.lifetime.start.p0(i64 24, ptr nonnull %4) #22
  invoke void @_ZN3gmx25BinaryInformationSettingsC1Ev(ptr noundef nonnull align 8 dereferenceable(24) %4)
          to label %5 unwind label %7

5:                                                ; preds = %2
  invoke void @_ZN3gmx22printBinaryInformationEPNS_10TextWriterERKNS_15IProgramContextERKNS_25BinaryInformationSettingsE(ptr noundef nonnull %3, ptr noundef nonnull align 8 dereferenceable(8) %1, ptr noundef nonnull align 8 dereferenceable(24) %4)
          to label %6 unwind label %7

6:                                                ; preds = %5
  call void @llvm.lifetime.end.p0(i64 24, ptr nonnull %4) #22
  call void @_ZN3gmx10TextWriterD1Ev(ptr noundef nonnull align 8 dereferenceable(8) %3) #22
  call void @llvm.lifetime.end.p0(i64 8, ptr nonnull %3) #22
  ret void

7:                                                ; preds = %5, %2
  %8 = landingpad { ptr, i32 }
          cleanup
  call void @llvm.lifetime.end.p0(i64 24, ptr nonnull %4) #22
  call void @_ZN3gmx10TextWriterD1Ev(ptr noundef nonnull align 8 dereferenceable(8) %3) #22
  call void @llvm.lifetime.end.p0(i64 8, ptr nonnull %3) #22
  resume { ptr, i32 } %8
}